target datalayout = "e-m:e-p270:32:32-p271:32:32-p272:64:64-i64:64-i128:128-f80:128-n8:16:32:64-S128"
target triple = "x86_64-pc-linux-gnu"

%struct.SDL_TrayMenu = type { ptr, i32, ptr, ptr, ptr }
%struct.SDL_TrayEntry = type { ptr, ptr, i8, i32, ptr, ptr, ptr }

@.str.7 = private unnamed_addr constant [26 x i8] c"Parameter '%s' is invalid\00", align 1
@.str.12 = private unnamed_addr constant [5 x i8] c"menu\00", align 1
@.str.13 = private unnamed_addr constant [4 x i8] c"pos\00", align 1
@gtk_separator_menu_item_new = internal global ptr null, align 8
@gtk_check_menu_item_new_with_label = internal global ptr null, align 8
@gtk_check_menu_item_set_active = internal global ptr null, align 8
@gtk_menu_item_new_with_label = internal global ptr null, align 8
@gtk_widget_set_sensitive = internal global ptr null, align 8
@gtk_widget_show = internal global ptr null, align 8
@gtk_menu_shell_insert = internal global ptr null, align 8
@g_signal_connect_data = internal global ptr null, align 8
@.str.14 = private unnamed_addr constant [9 x i8] c"activate\00", align 1

; Function Attrs: nounwind uwtable
define hidden ptr @SDL_InsertTrayEntryAt_REAL(ptr noundef %0, i32 noundef %1, ptr noundef %2, i32 noundef %3) #0 {
  %5 = alloca ptr, align 8
  %6 = alloca ptr, align 8
  %7 = alloca i32, align 4
  %8 = alloca ptr, align 8
  %9 = alloca i32, align 4
  %10 = alloca ptr, align 8
  %11 = alloca i32, align 4
  %12 = alloca i32, align 4
  %13 = alloca i32, align 4
  %14 = alloca ptr, align 8
  %15 = alloca i32, align 4
  store ptr %0, ptr %6, align 8
  store i32 %1, ptr %7, align 4
  store ptr %2, ptr %8, align 8
  store i32 %3, ptr %9, align 4
  %16 = load ptr, ptr %6, align 8
  %17 = icmp ne ptr %16, null
  br i1 %17, label %20, label %18

18:                                               ; preds = %4
  %19 = call zeroext i1 (ptr, ...) @SDL_SetError_REAL(ptr noundef @.str.7, ptr noundef @.str.12)
  store ptr null, ptr %5, align 8
  br label %194

20:                                               ; preds = %4
  %21 = load i32, ptr %7, align 4
  %22 = icmp slt i32 %21, -1
  br i1 %22, label %29, label %23

23:                                               ; preds = %20
  %24 = load i32, ptr %7, align 4
  %25 = load ptr, ptr %6, align 8
  %26 = getelementptr inbounds nuw %struct.SDL_TrayMenu, ptr %25, i32 0, i32 1
  %27 = load i32, ptr %26, align 8
  %28 = icmp sgt i32 %24, %27
  br i1 %28, label %29, label %31

29:                                               ; preds = %23, %20
  %30 = call zeroext i1 (ptr, ...) @SDL_SetError_REAL(ptr noundef @.str.7, ptr noundef @.str.13)
  store ptr null, ptr %5, align 8
  br label %194

31:                                               ; preds = %23
  %32 = load i32, ptr %7, align 4
  %33 = icmp eq i32 %32, -1
  br i1 %33, label %34, label %38

34:                                               ; preds = %31
  %35 = load ptr, ptr %6, align 8
  %36 = getelementptr inbounds nuw %struct.SDL_TrayMenu, ptr %35, i32 0, i32 1
  %37 = load i32, ptr %36, align 8
  store i32 %37, ptr %7, align 4
  br label %38

38:                                               ; preds = %34, %31
  call void @llvm.lifetime.start.p0(i64 8, ptr %10) #7
  %39 = call noalias ptr @SDL_calloc_REAL(i64 noundef 1, i64 noundef 48) #8
  store ptr %39, ptr %10, align 8
  %40 = load ptr, ptr %10, align 8
  %41 = icmp ne ptr %40, null
  br i1 %41, label %43, label %42

42:                                               ; preds = %38
  store ptr null, ptr %5, align 8
  store i32 1, ptr %11, align 4
  br label %193

43:                                               ; preds = %38
  %44 = load ptr, ptr %6, align 8
  %45 = load ptr, ptr %10, align 8
  %46 = getelementptr inbounds nuw %struct.SDL_TrayEntry, ptr %45, i32 0, i32 0
  store ptr %44, ptr %46, align 8
  %47 = load ptr, ptr %10, align 8
  %48 = getelementptr inbounds nuw %struct.SDL_TrayEntry, ptr %47, i32 0, i32 1
  store ptr null, ptr %48, align 8
  %49 = load ptr, ptr %10, align 8
  %50 = getelementptr inbounds nuw %struct.SDL_TrayEntry, ptr %49, i32 0, i32 2
  store i8 0, ptr %50, align 8
  %51 = load i32, ptr %9, align 4
  %52 = load ptr, ptr %10, align 8
  %53 = getelementptr inbounds nuw %struct.SDL_TrayEntry, ptr %52, i32 0, i32 3
  store i32 %51, ptr %53, align 4
  %54 = load ptr, ptr %10, align 8
  %55 = getelementptr inbounds nuw %struct.SDL_TrayEntry, ptr %54, i32 0, i32 4
  store ptr null, ptr %55, align 8
  %56 = load ptr, ptr %10, align 8
  %57 = getelementptr inbounds nuw %struct.SDL_TrayEntry, ptr %56, i32 0, i32 5
  store ptr null, ptr %57, align 8
  %58 = load ptr, ptr %10, align 8
  %59 = getelementptr inbounds nuw %struct.SDL_TrayEntry, ptr %58, i32 0, i32 6
  store ptr null, ptr %59, align 8
  %60 = load ptr, ptr %8, align 8
  %61 = icmp eq ptr %60, null
  br i1 %61, label %62, label %67

62:                                               ; preds = %43
  %63 = load ptr, ptr @gtk_separator_menu_item_new, align 8
  %64 = call ptr %63()
  %65 = load ptr, ptr %10, align 8
  %66 = getelementptr inbounds nuw %struct.SDL_TrayEntry, ptr %65, i32 0, i32 1
  store ptr %64, ptr %66, align 8
  br label %93

67:                                               ; preds = %43
  %68 = load i32, ptr %9, align 4
  %69 = and i32 %68, 2
  %70 = icmp ne i32 %69, 0
  br i1 %70, label %71, label %86

71:                                               ; preds = %67
  %72 = load ptr, ptr @gtk_check_menu_item_new_with_label, align 8
  %73 = load ptr, ptr %8, align 8
  %74 = call ptr %72(ptr noundef %73)
  %75 = load ptr, ptr %10, align 8
  %76 = getelementptr inbounds nuw %struct.SDL_TrayEntry, ptr %75, i32 0, i32 1
  store ptr %74, ptr %76, align 8
  call void @llvm.lifetime.start.p0(i64 4, ptr %12) #7
  %77 = load i32, ptr %9, align 4
  %78 = and i32 %77, 1073741824
  %79 = icmp ne i32 %78, 0
  %80 = zext i1 %79 to i32
  store i32 %80, ptr %12, align 4
  %81 = load ptr, ptr @gtk_check_menu_item_set_active, align 8
  %82 = load ptr, ptr %10, align 8
  %83 = getelementptr inbounds nuw %struct.SDL_TrayEntry, ptr %82, i32 0, i32 1
  %84 = load ptr, ptr %83, align 8
  %85 = load i32, ptr %12, align 4
  call void %81(ptr noundef %84, i32 noundef %85)
  call void @llvm.lifetime.end.p0(i64 4, ptr %12) #7
  br label %92

86:                                               ; preds = %67
  %87 = load ptr, ptr @gtk_menu_item_new_with_label, align 8
  %88 = load ptr, ptr %8, align 8
  %89 = call ptr %87(ptr noundef %88)
  %90 = load ptr, ptr %10, align 8
  %91 = getelementptr inbounds nuw %struct.SDL_TrayEntry, ptr %90, i32 0, i32 1
  store ptr %89, ptr %91, align 8
  br label %92

92:                                               ; preds = %86, %71
  br label %93

93:                                               ; preds = %92, %62
  call void @llvm.lifetime.start.p0(i64 4, ptr %13) #7
  %94 = load i32, ptr %9, align 4
  %95 = and i32 %94, -2147483648
  %96 = icmp eq i32 %95, 0
  %97 = zext i1 %96 to i32
  store i32 %97, ptr %13, align 4
  %98 = load ptr, ptr @gtk_widget_set_sensitive, align 8
  %99 = load ptr, ptr %10, align 8
  %100 = getelementptr inbounds nuw %struct.SDL_TrayEntry, ptr %99, i32 0, i32 1
  %101 = load ptr, ptr %100, align 8
  %102 = load i32, ptr %13, align 4
  call void %98(ptr noundef %101, i32 noundef %102)
  call void @llvm.lifetime.start.p0(i64 8, ptr %14) #7
  %103 = load ptr, ptr %6, align 8
  %104 = getelementptr inbounds nuw %struct.SDL_TrayMenu, ptr %103, i32 0, i32 2
  %105 = load ptr, ptr %104, align 8
  %106 = load ptr, ptr %6, align 8
  %107 = getelementptr inbounds nuw %struct.SDL_TrayMenu, ptr %106, i32 0, i32 1
  %108 = load i32, ptr %107, align 8
  %109 = add nsw i32 %108, 2
  %110 = sext i32 %109 to i64
  %111 = mul i64 %110, 8
  %112 = call ptr @SDL_realloc_REAL(ptr noundef %105, i64 noundef %111) #10
  store ptr %112, ptr %14, align 8
  %113 = load ptr, ptr %14, align 8
  %114 = icmp ne ptr %113, null
  br i1 %114, label %117, label %115

115:                                              ; preds = %93
  %116 = load ptr, ptr %10, align 8
  call void @SDL_free_REAL(ptr noundef %116)
  store ptr null, ptr %5, align 8
  store i32 1, ptr %11, align 4
  br label %192

117:                                              ; preds = %93
  %118 = load ptr, ptr %14, align 8
  %119 = load ptr, ptr %6, align 8
  %120 = getelementptr inbounds nuw %struct.SDL_TrayMenu, ptr %119, i32 0, i32 2
  store ptr %118, ptr %120, align 8
  %121 = load ptr, ptr %6, align 8
  %122 = getelementptr inbounds nuw %struct.SDL_TrayMenu, ptr %121, i32 0, i32 1
  %123 = load i32, ptr %122, align 8
  %124 = add nsw i32 %123, 1
  store i32 %124, ptr %122, align 8
  call void @llvm.lifetime.start.p0(i64 4, ptr %15) #7
  %125 = load ptr, ptr %6, align 8
  %126 = getelementptr inbounds nuw %struct.SDL_TrayMenu, ptr %125, i32 0, i32 1
  %127 = load i32, ptr %126, align 8
  %128 = sub nsw i32 %127, 1
  store i32 %128, ptr %15, align 4
  br label %129

129:                                              ; preds = %149, %117
  %130 = load i32, ptr %15, align 4
  %131 = load i32, ptr %7, align 4
  %132 = icmp sgt i32 %130, %131
  br i1 %132, label %134, label %133

133:                                              ; preds = %129
  store i32 2, ptr %11, align 4
  call void @llvm.lifetime.end.p0(i64 4, ptr %15) #7
  br label %152

134:                                              ; preds = %129
  %135 = load ptr, ptr %6, align 8
  %136 = getelementptr inbounds nuw %struct.SDL_TrayMenu, ptr %135, i32 0, i32 2
  %137 = load ptr, ptr %136, align 8
  %138 = load i32, ptr %15, align 4
  %139 = sub nsw i32 %138, 1
  %140 = sext i32 %139 to i64
  %141 = getelementptr inbounds ptr, ptr %137, i64 %140
  %142 = load ptr, ptr %141, align 8
  %143 = load ptr, ptr %6, align 8
  %144 = getelementptr inbounds nuw %struct.SDL_TrayMenu, ptr %143, i32 0, i32 2
  %145 = load ptr, ptr %144, align 8
  %146 = load i32, ptr %15, align 4
  %147 = sext i32 %146 to i64
  %148 = getelementptr inbounds ptr, ptr %145, i64 %147
  store ptr %142, ptr %148, align 8
  br label %149

149:                                              ; preds = %134
  %150 = load i32, ptr %15, align 4
  %151 = add nsw i32 %150, -1
  store i32 %151, ptr %15, align 4
  br label %129, !llvm.loop !8

152:                                              ; preds = %133
  %153 = load ptr, ptr %10, align 8
  %154 = load ptr, ptr %14, align 8
  %155 = load i32, ptr %7, align 4
  %156 = sext i32 %155 to i64
  %157 = getelementptr inbounds ptr, ptr %154, i64 %156
  store ptr %153, ptr %157, align 8
  %158 = load ptr, ptr %14, align 8
  %159 = load ptr, ptr %6, align 8
  %160 = getelementptr inbounds nuw %struct.SDL_TrayMenu, ptr %159, i32 0, i32 1
  %161 = load i32, ptr %160, align 8
  %162 = sext i32 %161 to i64
  %163 = getelementptr inbounds ptr, ptr %158, i64 %162
  store ptr null, ptr %163, align 8
  %164 = load ptr, ptr @gtk_widget_show, align 8
  %165 = load ptr, ptr %10, align 8
  %166 = getelementptr inbounds nuw %struct.SDL_TrayEntry, ptr %165, i32 0, i32 1
  %167 = load ptr, ptr %166, align 8
  call void %164(ptr noundef %167)
  %168 = load ptr, ptr @gtk_menu_shell_insert, align 8
  %169 = load ptr, ptr %6, align 8
  %170 = getelementptr inbounds nuw %struct.SDL_TrayMenu, ptr %169, i32 0, i32 0
  %171 = load ptr, ptr %170, align 8
  %172 = load ptr, ptr %10, align 8
  %173 = getelementptr inbounds nuw %struct.SDL_TrayEntry, ptr %172, i32 0, i32 1
  %174 = load ptr, ptr %173, align 8
  %175 = load i32, ptr %7, align 4
  %176 = load ptr, ptr %6, align 8
  %177 = getelementptr inbounds nuw %struct.SDL_TrayMenu, ptr %176, i32 0, i32 1
  %178 = load i32, ptr %177, align 8
  %179 = icmp eq i32 %175, %178
  br i1 %179, label %180, label %181

180:                                              ; preds = %152
  br label %183

181:                                              ; preds = %152
  %182 = load i32, ptr %7, align 4
  br label %183

183:                                              ; preds = %181, %180
  %184 = phi i32 [ -1, %180 ], [ %182, %181 ]
  call void %168(ptr noundef %171, ptr noundef %174, i32 noundef %184)
  %185 = load ptr, ptr @g_signal_connect_data, align 8
  %186 = load ptr, ptr %10, align 8
  %187 = getelementptr inbounds nuw %struct.SDL_TrayEntry, ptr %186, i32 0, i32 1
  %188 = load ptr, ptr %187, align 8
  %189 = load ptr, ptr %10, align 8
  %190 = call i64 %185(ptr noundef %188, ptr noundef @.str.14, ptr noundef @call_callback, ptr noundef %189, ptr noundef null, i32 noundef 0)
  %191 = load ptr, ptr %10, align 8
  store ptr %191, ptr %5, align 8
  store i32 1, ptr %11, align 4
  br label %192

192:                                              ; preds = %183, %115
  call void @llvm.lifetime.end.p0(i64 8, ptr %14) #7
  call void @llvm.lifetime.end.p0(i64 4, ptr %13) #7
  br label %193

193:                                              ; preds = %192, %42
  call void @llvm.lifetime.end.p0(i64 8, ptr %10) #7
  br label %194

194:                                              ; preds = %193, %29, %18
  %195 = load ptr, ptr %5, align 8
  ret ptr %195
}