; Function Attrs: nounwind uwtable
define hidden noundef ptr @SDL_InsertTrayEntryAt_REAL(ptr noundef %0, i32 noundef %1, ptr noundef %2, i32 noundef %3) local_unnamed_addr #0 {
  %.not = icmp eq ptr %0, null
  br i1 %.not, label %5, label %7

5:                                                ; preds = %4
  %6 = tail call zeroext i1 (ptr, ...) @SDL_SetError_REAL(ptr noundef nonnull @.str.7, ptr noundef nonnull @.str.12) #10
  br label %76

7:                                                ; preds = %4
  %8 = icmp slt i32 %1, -1
  br i1 %8, label %13, label %9

9:                                                ; preds = %7
  %10 = getelementptr inbounds nuw i8, ptr %0, i64 8
  %11 = load i32, ptr %10, align 8
  %12 = icmp sgt i32 %1, %11
  br i1 %12, label %13, label %15

13:                                               ; preds = %9, %7
  %14 = tail call zeroext i1 (ptr, ...) @SDL_SetError_REAL(ptr noundef nonnull @.str.7, ptr noundef nonnull @.str.13) #10
  br label %76

15:                                               ; preds = %9
  %16 = icmp eq i32 %1, -1
  %spec.select = select i1 %16, i32 %11, i32 %1
  %17 = tail call noalias dereferenceable_or_null(48) ptr @SDL_calloc_REAL(i64 noundef 1, i64 noundef 48) #11
  %.not66 = icmp eq ptr %17, null
  br i1 %.not66, label %76, label %18

18:                                               ; preds = %15
  store ptr %0, ptr %17, align 8
  %19 = getelementptr inbounds nuw i8, ptr %17, i64 8
  %20 = getelementptr inbounds nuw i8, ptr %17, i64 16
  store i8 0, ptr %20, align 8
  %21 = getelementptr inbounds nuw i8, ptr %17, i64 20
  store i32 %3, ptr %21, align 4
  %22 = getelementptr inbounds nuw i8, ptr %17, i64 24
  %23 = icmp eq ptr %2, null
  tail call void @llvm.memset.p0.i64(ptr noundef nonnull align 8 dereferenceable(24) %22, i8 0, i64 24, i1 false)
  br i1 %23, label %24, label %27

24:                                               ; preds = %18
  %25 = load ptr, ptr @gtk_separator_menu_item_new, align 8
  %26 = tail call ptr %25() #10
  store ptr %26, ptr %19, align 8
  br label %37

27:                                               ; preds = %18
  %28 = and i32 %3, 2
  %.not67 = icmp eq i32 %28, 0
  br i1 %.not67, label %34, label %29

29:                                               ; preds = %27
  %30 = load ptr, ptr @gtk_check_menu_item_new_with_label, align 8
  %31 = tail call ptr %30(ptr noundef nonnull %2) #10
  store ptr %31, ptr %19, align 8
  %32 = lshr i32 %3, 30
  %.lobit = and i32 %32, 1
  %33 = load ptr, ptr @gtk_check_menu_item_set_active, align 8
  tail call void %33(ptr noundef %31, i32 noundef %.lobit) #10
  br label %37

34:                                               ; preds = %27
  %35 = load ptr, ptr @gtk_menu_item_new_with_label, align 8
  %36 = tail call ptr %35(ptr noundef nonnull %2) #10
  store ptr %36, ptr %19, align 8
  br label %37

37:                                               ; preds = %29, %34, %24
  %38 = phi ptr [ %31, %29 ], [ %36, %34 ], [ %26, %24 ]
  %39 = icmp sgt i32 %3, -1
  %40 = zext i1 %39 to i32
  %41 = load ptr, ptr @gtk_widget_set_sensitive, align 8
  tail call void %41(ptr noundef %38, i32 noundef %40) #10
  %42 = getelementptr inbounds nuw i8, ptr %0, i64 16
  %43 = load ptr, ptr %42, align 8
  %44 = load i32, ptr %10, align 8
  %45 = add nsw i32 %44, 2
  %46 = sext i32 %45 to i64
  %47 = shl nsw i64 %46, 3
  %48 = tail call ptr @SDL_realloc_REAL(ptr noundef %43, i64 noundef %47) #13
  %.not68 = icmp eq ptr %48, null
  br i1 %.not68, label %49, label %50

49:                                               ; preds = %37
  tail call void @SDL_free_REAL(ptr noundef nonnull %17) #10
  br label %76

50:                                               ; preds = %37
  store ptr %48, ptr %42, align 8
  %51 = load i32, ptr %10, align 8
  %52 = add nsw i32 %51, 1
  store i32 %52, ptr %10, align 8
  %53 = icmp sgt i32 %51, %spec.select
  br i1 %53, label %.lr.ph.preheader, label %.._crit_edge_crit_edge

.._crit_edge_crit_edge:                           ; preds = %50
  %.pre71 = sext i32 %spec.select to i64
  br label %._crit_edge

.lr.ph.preheader:                                 ; preds = %50
  %54 = zext nneg i32 %51 to i64
  %55 = sext i32 %spec.select to i64
  br label %.lr.ph

._crit_edge.loopexit:                             ; preds = %.lr.ph
  %.pre = load ptr, ptr %19, align 8
  br label %._crit_edge

._crit_edge:                                      ; preds = %.._crit_edge_crit_edge, %._crit_edge.loopexit
  %.pre-phi = phi i64 [ %.pre71, %.._crit_edge_crit_edge ], [ %55, %._crit_edge.loopexit ]
  %56 = phi ptr [ %38, %.._crit_edge_crit_edge ], [ %.pre, %._crit_edge.loopexit ]
  %57 = getelementptr inbounds ptr, ptr %48, i64 %.pre-phi
  store ptr %17, ptr %57, align 8
  %58 = load i32, ptr %10, align 8
  %59 = sext i32 %58 to i64
  %60 = getelementptr inbounds ptr, ptr %48, i64 %59
  store ptr null, ptr %60, align 8
  %61 = load ptr, ptr @gtk_widget_show, align 8
  tail call void %61(ptr noundef %56) #10
  %62 = load ptr, ptr @gtk_menu_shell_insert, align 8
  %63 = load ptr, ptr %0, align 8
  %64 = load ptr, ptr %19, align 8
  %65 = load i32, ptr %10, align 8
  %66 = icmp eq i32 %spec.select, %65
  %67 = select i1 %66, i32 -1, i32 %spec.select
  tail call void %62(ptr noundef %63, ptr noundef %64, i32 noundef %67) #10
  %68 = load ptr, ptr @g_signal_connect_data, align 8
  %69 = load ptr, ptr %19, align 8
  %70 = tail call i64 %68(ptr noundef %69, ptr noundef nonnull @.str.14, ptr noundef nonnull @call_callback, ptr noundef nonnull %17, ptr noundef null, i32 noundef 0) #10
  br label %76

.lr.ph:                                           ; preds = %.lr.ph.preheader, %.lr.ph
  %indvars.iv = phi i64 [ %54, %.lr.ph.preheader ], [ %indvars.iv.next, %.lr.ph ]
  %71 = load ptr, ptr %42, align 8
  %72 = getelementptr ptr, ptr %71, i64 %indvars.iv
  %73 = getelementptr i8, ptr %72, i64 -8
  %74 = load ptr, ptr %73, align 8
  store ptr %74, ptr %72, align 8
  %indvars.iv.next = add nsw i64 %indvars.iv, -1
  %75 = icmp sgt i64 %indvars.iv.next, %55
  br i1 %75, label %.lr.ph, label %._crit_edge.loopexit, !llvm.loop !7

76:                                               ; preds = %15, %._crit_edge, %49, %13, %5
  %.058 = phi ptr [ null, %13 ], [ null, %5 ], [ null, %15 ], [ %17, %._crit_edge ], [ null, %49 ]
  ret ptr %.058
}